target datalayout = "e-m:e-p270:32:32-p271:32:32-p272:64:64-i64:64-i128:128-f80:128-n8:16:32:64-S128"
target triple = "x86_64-pc-linux-gnu"

%class.Register = type { i32 }
%class.XMMRegister = type { i32 }
%class.AddressLiteral = type { %class.RelocationHolder, i8, ptr }
%class.RelocationHolder = type { [40 x i8] }
%class.ExternalAddress = type { %class.AddressLiteral }
%class.StubCodeGenerator = type { ptr, i8, ptr }

@_ZL15POLY1305_MASK44 = internal constant [8 x i64] [i64 17592186044415, i64 17592186044415, i64 17592186044415, i64 17592186044415, i64 17592186044415, i64 17592186044415, i64 17592186044415, i64 17592186044415], align 64
@_ZL16POLY1305_PAD_MSG = internal constant [8 x i64] [i64 1099511627776, i64 1099511627776, i64 1099511627776, i64 1099511627776, i64 1099511627776, i64 1099511627776, i64 1099511627776, i64 1099511627776], align 64

; Function Attrs: mustprogress nounwind uwtable
define linkonce_odr hidden noundef ptr @_ZNK16RelocationHolder5relocEv(ptr noundef nonnull align 8 dereferenceable(40) %0) #1 comdat align 2 {
  %2 = alloca ptr, align 8
  store ptr %0, ptr %2, align 8
  %3 = load ptr, ptr %2, align 8
  %4 = getelementptr inbounds %class.RelocationHolder, ptr %3, i32 0, i32 0
  %5 = getelementptr inbounds [40 x i8], ptr %4, i64 0, i64 0
  ret ptr %5
}

; Function Attrs: mustprogress nounwind uwtable
define linkonce_odr hidden noundef zeroext i1 @_ZN24external_word_Relocation16can_be_relocatedEPh(ptr noundef %0) #1 comdat align 2 {
  %2 = alloca ptr, align 8
  store ptr %0, ptr %2, align 8
  %3 = load ptr, ptr %2, align 8
  %4 = icmp ne ptr %3, null
  ret i1 %4
}

; Function Attrs: mustprogress nounwind uwtable
define linkonce_odr hidden void @_ZN16RelocationHolderC2ERKS_(ptr noundef nonnull align 8 dereferenceable(40) %0, ptr noundef nonnull align 8 dereferenceable(40) %1) unnamed_addr #1 comdat align 2 {
  %3 = alloca ptr, align 8
  %4 = alloca ptr, align 8
  store ptr %0, ptr %3, align 8
  store ptr %1, ptr %4, align 8
  %5 = load ptr, ptr %3, align 8
  %6 = load ptr, ptr %4, align 8
  %7 = call noundef ptr @_ZNK16RelocationHolder5relocEv(ptr noundef nonnull align 8 dereferenceable(40) %6)
  %8 = load ptr, ptr %7, align 8
  %9 = getelementptr inbounds ptr, ptr %8, i64 2
  %10 = load ptr, ptr %9, align 8
  call void %10(ptr noundef nonnull align 8 dereferenceable(20) %7, ptr noundef nonnull align 8 dereferenceable(40) %5)
  ret void
}

; Function Attrs: mustprogress nounwind uwtable
define linkonce_odr hidden noundef i32 @_ZN15ExternalAddress16reloc_for_targetEPh(ptr noundef %0) #1 comdat align 2 {
  %2 = alloca ptr, align 8
  store ptr %0, ptr %2, align 8
  %3 = load ptr, ptr %2, align 8
  %4 = call noundef zeroext i1 @_ZN24external_word_Relocation16can_be_relocatedEPh(ptr noundef %3)
  %5 = select i1 %4, i32 7, i32 0
  ret i32 %5
}

; Function Attrs: mustprogress nounwind uwtable
define internal noundef ptr @_ZL15poly1305_mask44v() #1 {
  ret ptr @_ZL15POLY1305_MASK44
}

; Function Attrs: mustprogress nounwind uwtable
define linkonce_odr hidden void @_ZN14AddressLiteralC2EOS_(ptr noundef nonnull align 8 dereferenceable(56) %0, ptr noundef nonnull align 8 dereferenceable(56) %1) unnamed_addr #1 comdat align 2 {
  %3 = alloca ptr, align 8
  %4 = alloca ptr, align 8
  store ptr %0, ptr %3, align 8
  store ptr %1, ptr %4, align 8
  %5 = load ptr, ptr %3, align 8
  %6 = getelementptr inbounds %class.AddressLiteral, ptr %5, i32 0, i32 0
  %7 = load ptr, ptr %4, align 8
  %8 = getelementptr inbounds %class.AddressLiteral, ptr %7, i32 0, i32 0
  call void @_ZN16RelocationHolderC2ERKS_(ptr noundef nonnull align 8 dereferenceable(40) %6, ptr noundef nonnull align 8 dereferenceable(40) %8)
  %9 = getelementptr inbounds %class.AddressLiteral, ptr %5, i32 0, i32 1
  %10 = load ptr, ptr %4, align 8
  %11 = getelementptr inbounds %class.AddressLiteral, ptr %10, i32 0, i32 1
  call void @llvm.memcpy.p0.p0.i64(ptr align 8 %9, ptr align 8 %11, i64 16, i1 false)
  ret void
}

; Function Attrs: mustprogress nounwind uwtable
define linkonce_odr hidden void @_ZN15ExternalAddressC2EPh(ptr noundef nonnull align 8 dereferenceable(56) %0, ptr noundef %1) unnamed_addr #1 comdat align 2 {
  %3 = alloca ptr, align 8
  %4 = alloca ptr, align 8
  store ptr %0, ptr %3, align 8
  store ptr %1, ptr %4, align 8
  %5 = load ptr, ptr %3, align 8
  %6 = load ptr, ptr %4, align 8
  %7 = load ptr, ptr %4, align 8
  %8 = call noundef i32 @_ZN15ExternalAddress16reloc_for_targetEPh(ptr noundef %7)
  call void @_ZN14AddressLiteralC2EPhN9relocInfo9relocTypeE(ptr noundef nonnull align 8 dereferenceable(56) %5, ptr noundef %6, i32 noundef %8)
  ret void
}

; Function Attrs: mustprogress nounwind uwtable
define internal noundef ptr @_ZL16poly1305_pad_msgv() #1 {
  ret ptr @_ZL16POLY1305_PAD_MSG
}

; Function Attrs: mustprogress nounwind uwtable
define hidden void @_ZN13StubGenerator21poly1305_limbs_avx512E11XMMRegisterS0_S0_S0_S0_bS0_8Register(ptr noundef nonnull align 8 dereferenceable(24) %0, i32 %1, i32 %2, i32 %3, i32 %4, i32 %5, i1 noundef zeroext %6, i32 %7, i32 %8) #1 align 2 {
  %10 = alloca %class.XMMRegister, align 4
  %11 = alloca %class.XMMRegister, align 4
  %12 = alloca %class.XMMRegister, align 4
  %13 = alloca %class.XMMRegister, align 4
  %14 = alloca %class.XMMRegister, align 4
  %15 = alloca %class.XMMRegister, align 4
  %16 = alloca %class.Register, align 4
  %17 = alloca ptr, align 8
  %18 = alloca i8, align 1
  %19 = alloca %class.XMMRegister, align 4
  %20 = alloca %class.XMMRegister, align 4
  %21 = alloca %class.XMMRegister, align 4
  %22 = alloca %class.XMMRegister, align 4
  %23 = alloca %class.XMMRegister, align 4
  %24 = alloca %class.XMMRegister, align 4
  %25 = alloca %class.XMMRegister, align 4
  %26 = alloca %class.XMMRegister, align 4
  %27 = alloca %class.XMMRegister, align 4
  %28 = alloca %class.XMMRegister, align 4
  %29 = alloca %class.AddressLiteral, align 8
  %30 = alloca %class.ExternalAddress, align 8
  %31 = alloca %class.Register, align 4
  %32 = alloca %class.XMMRegister, align 4
  %33 = alloca %class.XMMRegister, align 4
  %34 = alloca %class.XMMRegister, align 4
  %35 = alloca %class.XMMRegister, align 4
  %36 = alloca %class.XMMRegister, align 4
  %37 = alloca %class.XMMRegister, align 4
  %38 = alloca %class.AddressLiteral, align 8
  %39 = alloca %class.ExternalAddress, align 8
  %40 = alloca %class.Register, align 4
  %41 = alloca %class.XMMRegister, align 4
  %42 = alloca %class.XMMRegister, align 4
  %43 = alloca %class.AddressLiteral, align 8
  %44 = alloca %class.ExternalAddress, align 8
  %45 = alloca %class.Register, align 4
  %46 = getelementptr inbounds %class.XMMRegister, ptr %10, i32 0, i32 0
  store i32 %1, ptr %46, align 4
  %47 = getelementptr inbounds %class.XMMRegister, ptr %11, i32 0, i32 0
  store i32 %2, ptr %47, align 4
  %48 = getelementptr inbounds %class.XMMRegister, ptr %12, i32 0, i32 0
  store i32 %3, ptr %48, align 4
  %49 = getelementptr inbounds %class.XMMRegister, ptr %13, i32 0, i32 0
  store i32 %4, ptr %49, align 4
  %50 = getelementptr inbounds %class.XMMRegister, ptr %14, i32 0, i32 0
  store i32 %5, ptr %50, align 4
  %51 = getelementptr inbounds %class.XMMRegister, ptr %15, i32 0, i32 0
  store i32 %7, ptr %51, align 4
  %52 = getelementptr inbounds %class.Register, ptr %16, i32 0, i32 0
  store i32 %8, ptr %52, align 4
  store ptr %0, ptr %17, align 8
  %53 = zext i1 %6 to i8
  store i8 %53, ptr %18, align 1
  %54 = load ptr, ptr %17, align 8
  %55 = getelementptr inbounds %class.StubCodeGenerator, ptr %54, i32 0, i32 2
  %56 = load ptr, ptr %55, align 8
  call void @llvm.memcpy.p0.p0.i64(ptr align 4 %19, ptr align 4 %15, i64 4, i1 false)
  call void @llvm.memcpy.p0.p0.i64(ptr align 4 %20, ptr align 4 %10, i64 4, i1 false)
  call void @llvm.memcpy.p0.p0.i64(ptr align 4 %21, ptr align 4 %11, i64 4, i1 false)
  %57 = getelementptr inbounds %class.XMMRegister, ptr %19, i32 0, i32 0
  %58 = load i32, ptr %57, align 4
  %59 = getelementptr inbounds %class.XMMRegister, ptr %20, i32 0, i32 0
  %60 = load i32, ptr %59, align 4
  %61 = getelementptr inbounds %class.XMMRegister, ptr %21, i32 0, i32 0
  %62 = load i32, ptr %61, align 4
  call void @_ZN9Assembler12evpunpckhqdqE11XMMRegisterS0_S0_i(ptr noundef nonnull align 8 dereferenceable(40) %56, i32 %58, i32 %60, i32 %62, i32 noundef 2)
  %63 = getelementptr inbounds %class.StubCodeGenerator, ptr %54, i32 0, i32 2
  %64 = load ptr, ptr %63, align 8
  call void @llvm.memcpy.p0.p0.i64(ptr align 4 %22, ptr align 4 %12, i64 4, i1 false)
  call void @llvm.memcpy.p0.p0.i64(ptr align 4 %23, ptr align 4 %10, i64 4, i1 false)
  call void @llvm.memcpy.p0.p0.i64(ptr align 4 %24, ptr align 4 %11, i64 4, i1 false)
  %65 = getelementptr inbounds %class.XMMRegister, ptr %22, i32 0, i32 0
  %66 = load i32, ptr %65, align 4
  %67 = getelementptr inbounds %class.XMMRegister, ptr %23, i32 0, i32 0
  %68 = load i32, ptr %67, align 4
  %69 = getelementptr inbounds %class.XMMRegister, ptr %24, i32 0, i32 0
  %70 = load i32, ptr %69, align 4
  call void @_ZN9Assembler12evpunpcklqdqE11XMMRegisterS0_S0_i(ptr noundef nonnull align 8 dereferenceable(40) %64, i32 %66, i32 %68, i32 %70, i32 noundef 2)
  %71 = getelementptr inbounds %class.StubCodeGenerator, ptr %54, i32 0, i32 2
  %72 = load ptr, ptr %71, align 8
  call void @llvm.memcpy.p0.p0.i64(ptr align 4 %25, ptr align 4 %14, i64 4, i1 false)
  call void @llvm.memcpy.p0.p0.i64(ptr align 4 %26, ptr align 4 %15, i64 4, i1 false)
  %73 = getelementptr inbounds %class.XMMRegister, ptr %25, i32 0, i32 0
  %74 = load i32, ptr %73, align 4
  %75 = getelementptr inbounds %class.XMMRegister, ptr %26, i32 0, i32 0
  %76 = load i32, ptr %75, align 4
  call void @_ZN9Assembler6vpsrlqE11XMMRegisterS0_ii(ptr noundef nonnull align 8 dereferenceable(40) %72, i32 %74, i32 %76, i32 noundef 24, i32 noundef 2)
  %77 = load i8, ptr %18, align 1
  %78 = trunc i8 %77 to i1
  br i1 %78, label %79, label %89

79:                                               ; preds = %9
  %80 = getelementptr inbounds %class.StubCodeGenerator, ptr %54, i32 0, i32 2
  %81 = load ptr, ptr %80, align 8
  call void @llvm.memcpy.p0.p0.i64(ptr align 4 %27, ptr align 4 %14, i64 4, i1 false)
  call void @llvm.memcpy.p0.p0.i64(ptr align 4 %28, ptr align 4 %14, i64 4, i1 false)
  %82 = call noundef ptr @_ZL16poly1305_pad_msgv()
  call void @_ZN15ExternalAddressC2EPh(ptr noundef nonnull align 8 dereferenceable(56) %30, ptr noundef %82)
  call void @_ZN14AddressLiteralC2EOS_(ptr noundef nonnull align 8 dereferenceable(56) %29, ptr noundef nonnull align 8 dereferenceable(56) %30)
  call void @llvm.memcpy.p0.p0.i64(ptr align 4 %31, ptr align 4 %16, i64 4, i1 false)
  %83 = getelementptr inbounds %class.XMMRegister, ptr %27, i32 0, i32 0
  %84 = load i32, ptr %83, align 4
  %85 = getelementptr inbounds %class.XMMRegister, ptr %28, i32 0, i32 0
  %86 = load i32, ptr %85, align 4
  %87 = getelementptr inbounds %class.Register, ptr %31, i32 0, i32 0
  %88 = load i32, ptr %87, align 4
  call void @_ZN14MacroAssembler6evporqE11XMMRegisterS0_14AddressLiterali8Register(ptr noundef nonnull align 8 dereferenceable(40) %81, i32 %84, i32 %86, ptr noundef %29, i32 noundef 2, i32 %88)
  br label %89

89:                                               ; preds = %79, %9
  %90 = getelementptr inbounds %class.StubCodeGenerator, ptr %54, i32 0, i32 2
  %91 = load ptr, ptr %90, align 8
  call void @llvm.memcpy.p0.p0.i64(ptr align 4 %32, ptr align 4 %13, i64 4, i1 false)
  call void @llvm.memcpy.p0.p0.i64(ptr align 4 %33, ptr align 4 %12, i64 4, i1 false)
  %92 = getelementptr inbounds %class.XMMRegister, ptr %32, i32 0, i32 0
  %93 = load i32, ptr %92, align 4
  %94 = getelementptr inbounds %class.XMMRegister, ptr %33, i32 0, i32 0
  %95 = load i32, ptr %94, align 4
  call void @_ZN9Assembler6vpsrlqE11XMMRegisterS0_ii(ptr noundef nonnull align 8 dereferenceable(40) %91, i32 %93, i32 %95, i32 noundef 44, i32 noundef 2)
  %96 = getelementptr inbounds %class.StubCodeGenerator, ptr %54, i32 0, i32 2
  %97 = load ptr, ptr %96, align 8
  call void @llvm.memcpy.p0.p0.i64(ptr align 4 %34, ptr align 4 %15, i64 4, i1 false)
  call void @llvm.memcpy.p0.p0.i64(ptr align 4 %35, ptr align 4 %15, i64 4, i1 false)
  %98 = getelementptr inbounds %class.XMMRegister, ptr %34, i32 0, i32 0
  %99 = load i32, ptr %98, align 4
  %100 = getelementptr inbounds %class.XMMRegister, ptr %35, i32 0, i32 0
  %101 = load i32, ptr %100, align 4
  call void @_ZN9Assembler6vpsllqE11XMMRegisterS0_ii(ptr noundef nonnull align 8 dereferenceable(40) %97, i32 %99, i32 %101, i32 noundef 20, i32 noundef 2)
  %102 = getelementptr inbounds %class.StubCodeGenerator, ptr %54, i32 0, i32 2
  %103 = load ptr, ptr %102, align 8
  call void @llvm.memcpy.p0.p0.i64(ptr align 4 %36, ptr align 4 %13, i64 4, i1 false)
  call void @llvm.memcpy.p0.p0.i64(ptr align 4 %37, ptr align 4 %15, i64 4, i1 false)
  %104 = call noundef ptr @_ZL15poly1305_mask44v()
  call void @_ZN15ExternalAddressC2EPh(ptr noundef nonnull align 8 dereferenceable(56) %39, ptr noundef %104)
  call void @_ZN14AddressLiteralC2EOS_(ptr noundef nonnull align 8 dereferenceable(56) %38, ptr noundef nonnull align 8 dereferenceable(56) %39)
  call void @llvm.memcpy.p0.p0.i64(ptr align 4 %40, ptr align 4 %16, i64 4, i1 false)
  %105 = getelementptr inbounds %class.XMMRegister, ptr %36, i32 0, i32 0
  %106 = load i32, ptr %105, align 4
  %107 = getelementptr inbounds %class.XMMRegister, ptr %37, i32 0, i32 0
  %108 = load i32, ptr %107, align 4
  %109 = getelementptr inbounds %class.Register, ptr %40, i32 0, i32 0
  %110 = load i32, ptr %109, align 4
  call void @_ZN14MacroAssembler10vpternlogqE11XMMRegisteriS0_14AddressLiterali8Register(ptr noundef nonnull align 8 dereferenceable(40) %103, i32 %106, i32 noundef 168, i32 %108, ptr noundef %38, i32 noundef 2, i32 %110)
  %111 = getelementptr inbounds %class.StubCodeGenerator, ptr %54, i32 0, i32 2
  %112 = load ptr, ptr %111, align 8
  call void @llvm.memcpy.p0.p0.i64(ptr align 4 %41, ptr align 4 %12, i64 4, i1 false)
  call void @llvm.memcpy.p0.p0.i64(ptr align 4 %42, ptr align 4 %12, i64 4, i1 false)
  %113 = call noundef ptr @_ZL15poly1305_mask44v()
  call void @_ZN15ExternalAddressC2EPh(ptr noundef nonnull align 8 dereferenceable(56) %44, ptr noundef %113)
  call void @_ZN14AddressLiteralC2EOS_(ptr noundef nonnull align 8 dereferenceable(56) %43, ptr noundef nonnull align 8 dereferenceable(56) %44)
  call void @llvm.memcpy.p0.p0.i64(ptr align 4 %45, ptr align 4 %16, i64 4, i1 false)
  %114 = getelementptr inbounds %class.XMMRegister, ptr %41, i32 0, i32 0
  %115 = load i32, ptr %114, align 4
  %116 = getelementptr inbounds %class.XMMRegister, ptr %42, i32 0, i32 0
  %117 = load i32, ptr %116, align 4
  %118 = getelementptr inbounds %class.Register, ptr %45, i32 0, i32 0
  %119 = load i32, ptr %118, align 4
  call void @_ZN14MacroAssembler7evpandqE11XMMRegisterS0_14AddressLiterali8Register(ptr noundef nonnull align 8 dereferenceable(40) %112, i32 %115, i32 %117, ptr noundef %43, i32 noundef 2, i32 %119)
  ret void
}