; Function Attrs: mustprogress nounwind uwtable
define hidden void @_ZN13StubGenerator21poly1305_limbs_avx512E11XMMRegisterS0_S0_S0_S0_bS0_8Register(ptr nocapture noundef nonnull readonly align 8 dereferenceable(24) %0, i32 %1, i32 %2, i32 %3, i32 %4, i32 %5, i1 noundef zeroext %6, i32 %7, i32 %8) local_unnamed_addr #0 align 2 {
  %10 = alloca %class.AddressLiteral, align 8
  %11 = alloca %class.ExternalAddress, align 8
  %12 = alloca %class.AddressLiteral, align 8
  %13 = alloca %class.ExternalAddress, align 8
  %14 = alloca %class.AddressLiteral, align 8
  %15 = alloca %class.ExternalAddress, align 8
  %16 = getelementptr inbounds i8, ptr %0, i64 16
  %17 = load ptr, ptr %16, align 8
  tail call void @_ZN9Assembler12evpunpckhqdqE11XMMRegisterS0_S0_i(ptr noundef nonnull align 8 dereferenceable(40) %17, i32 %7, i32 %1, i32 %2, i32 noundef 2) #5
  %18 = load ptr, ptr %16, align 8
  tail call void @_ZN9Assembler12evpunpcklqdqE11XMMRegisterS0_S0_i(ptr noundef nonnull align 8 dereferenceable(40) %18, i32 %3, i32 %1, i32 %2, i32 noundef 2) #5
  %19 = load ptr, ptr %16, align 8
  tail call void @_ZN9Assembler6vpsrlqE11XMMRegisterS0_ii(ptr noundef nonnull align 8 dereferenceable(40) %19, i32 %5, i32 %7, i32 noundef 24, i32 noundef 2) #5
  br i1 %6, label %20, label %27

20:                                               ; preds = %9
  %21 = load ptr, ptr %16, align 8
  call void @_ZN14AddressLiteralC2EPhN9relocInfo9relocTypeE(ptr noundef nonnull align 8 dereferenceable(56) %11, ptr noundef nonnull @_ZL16POLY1305_PAD_MSG, i32 noundef 7) #5
  %22 = load ptr, ptr %11, align 8
  %23 = getelementptr inbounds i8, ptr %22, i64 16
  %24 = load ptr, ptr %23, align 8
  call void %24(ptr noundef nonnull align 8 dereferenceable(20) %11, ptr noundef nonnull align 8 dereferenceable(40) %10) #5
  %25 = getelementptr inbounds i8, ptr %10, i64 40
  %26 = getelementptr inbounds i8, ptr %11, i64 40
  call void @llvm.memcpy.p0.p0.i64(ptr noundef nonnull align 8 dereferenceable(16) %25, ptr noundef nonnull align 8 dereferenceable(16) %26, i64 16, i1 false)
  call void @_ZN14MacroAssembler6evporqE11XMMRegisterS0_14AddressLiterali8Register(ptr noundef nonnull align 8 dereferenceable(40) %21, i32 %5, i32 %5, ptr noundef nonnull %10, i32 noundef 2, i32 %8) #5
  br label %27

27:                                               ; preds = %20, %9
  %28 = load ptr, ptr %16, align 8
  call void @_ZN9Assembler6vpsrlqE11XMMRegisterS0_ii(ptr noundef nonnull align 8 dereferenceable(40) %28, i32 %4, i32 %3, i32 noundef 44, i32 noundef 2) #5
  %29 = load ptr, ptr %16, align 8
  call void @_ZN9Assembler6vpsllqE11XMMRegisterS0_ii(ptr noundef nonnull align 8 dereferenceable(40) %29, i32 %7, i32 %7, i32 noundef 20, i32 noundef 2) #5
  %30 = load ptr, ptr %16, align 8
  call void @_ZN14AddressLiteralC2EPhN9relocInfo9relocTypeE(ptr noundef nonnull align 8 dereferenceable(56) %13, ptr noundef nonnull @_ZL15POLY1305_MASK44, i32 noundef 7) #5
  %31 = load ptr, ptr %13, align 8
  %32 = getelementptr inbounds i8, ptr %31, i64 16
  %33 = load ptr, ptr %32, align 8
  call void %33(ptr noundef nonnull align 8 dereferenceable(20) %13, ptr noundef nonnull align 8 dereferenceable(40) %12) #5
  %34 = getelementptr inbounds i8, ptr %12, i64 40
  %35 = getelementptr inbounds i8, ptr %13, i64 40
  call void @llvm.memcpy.p0.p0.i64(ptr noundef nonnull align 8 dereferenceable(16) %34, ptr noundef nonnull align 8 dereferenceable(16) %35, i64 16, i1 false)
  call void @_ZN14MacroAssembler10vpternlogqE11XMMRegisteriS0_14AddressLiterali8Register(ptr noundef nonnull align 8 dereferenceable(40) %30, i32 %4, i32 noundef 168, i32 %7, ptr noundef nonnull %12, i32 noundef 2, i32 %8) #5
  %36 = load ptr, ptr %16, align 8
  call void @_ZN14AddressLiteralC2EPhN9relocInfo9relocTypeE(ptr noundef nonnull align 8 dereferenceable(56) %15, ptr noundef nonnull @_ZL15POLY1305_MASK44, i32 noundef 7) #5
  %37 = load ptr, ptr %15, align 8
  %38 = getelementptr inbounds i8, ptr %37, i64 16
  %39 = load ptr, ptr %38, align 8
  call void %39(ptr noundef nonnull align 8 dereferenceable(20) %15, ptr noundef nonnull align 8 dereferenceable(40) %14) #5
  %40 = getelementptr inbounds i8, ptr %14, i64 40
  %41 = getelementptr inbounds i8, ptr %15, i64 40
  call void @llvm.memcpy.p0.p0.i64(ptr noundef nonnull align 8 dereferenceable(16) %40, ptr noundef nonnull align 8 dereferenceable(16) %41, i64 16, i1 false)
  call void @_ZN14MacroAssembler7evpandqE11XMMRegisterS0_14AddressLiterali8Register(ptr noundef nonnull align 8 dereferenceable(40) %36, i32 %3, i32 %3, ptr noundef nonnull %14, i32 noundef 2, i32 %8) #5
  ret void
}